; Function Attrs: mustprogress uwtable
define dso_local void @_ZN7doctest10AssertDataC2ENS_10assertType4EnumEPKciS4_S4_RKNS0_14StringContainsE(ptr noundef nonnull writeonly align 8 captures(none) dereferenceable(144) initializes((0, 12), (16, 28), (32, 42), (48, 49), (71, 73), (95, 97), (104, 112), (135, 136)) %0, i32 noundef %1, ptr noundef %2, i32 noundef %3, ptr noundef %4, ptr noundef %5, ptr noundef nonnull readonly align 8 captures(none) dereferenceable(25) %6) unnamed_addr #8 align 2 personality ptr @__gxx_personality_v0 {
  %8 = load ptr, ptr @_ZN7doctest6detail4g_csE, align 8, !tbaa !73
  %9 = getelementptr inbounds nuw i8, ptr %8, i64 32
  %10 = load ptr, ptr %9, align 8, !tbaa !292
  store ptr %10, ptr %0, align 8, !tbaa !293
  %11 = getelementptr inbounds nuw i8, ptr %0, i64 8
  store i32 %1, ptr %11, align 8, !tbaa !298
  %12 = getelementptr inbounds nuw i8, ptr %0, i64 16
  store ptr %2, ptr %12, align 8, !tbaa !299
  %13 = getelementptr inbounds nuw i8, ptr %0, i64 24
  store i32 %3, ptr %13, align 8, !tbaa !300
  %14 = getelementptr inbounds nuw i8, ptr %0, i64 32
  store ptr %4, ptr %14, align 8, !tbaa !301
  %15 = getelementptr inbounds nuw i8, ptr %0, i64 40
  store i8 1, ptr %15, align 8, !tbaa !302
  %16 = getelementptr inbounds nuw i8, ptr %0, i64 41
  store i8 0, ptr %16, align 1, !tbaa !303
  %17 = getelementptr inbounds nuw i8, ptr %0, i64 48
  store i8 0, ptr %17, align 8, !tbaa !38
  %18 = getelementptr inbounds nuw i8, ptr %0, i64 71
  store i8 23, ptr %18, align 1, !tbaa !38
  %19 = getelementptr inbounds nuw i8, ptr %0, i64 72
  store i8 0, ptr %19, align 8, !tbaa !38
  %20 = getelementptr inbounds nuw i8, ptr %0, i64 95
  store i8 23, ptr %20, align 1, !tbaa !38
  %21 = getelementptr inbounds nuw i8, ptr %0, i64 96
  store i8 0, ptr %21, align 8, !tbaa !304
  %22 = getelementptr inbounds nuw i8, ptr %0, i64 104
  store ptr %5, ptr %22, align 8, !tbaa !305
  %23 = getelementptr inbounds nuw i8, ptr %0, i64 112
  %24 = getelementptr inbounds nuw i8, ptr %6, i64 23
  %25 = load i8, ptr %24, align 1, !tbaa !38
  %26 = icmp sgt i8 %25, -1
  br i1 %26, label %27, label %28

27:                                               ; preds = %7
  tail call void @llvm.memcpy.p0.p0.i64(ptr noundef nonnull align 8 dereferenceable(25) %23, ptr noundef nonnull readonly align 8 dereferenceable(25) %6, i64 24, i1 false)
  br label %49

28:                                               ; preds = %7
  %29 = getelementptr inbounds nuw i8, ptr %6, i64 8
  %30 = load i32, ptr %29, align 8, !tbaa !38
  %31 = icmp ult i32 %30, 24
  br i1 %31, label %32, label %.noexc

32:                                               ; preds = %28
  %33 = zext nneg i32 %30 to i64
  %34 = getelementptr inbounds nuw [24 x i8], ptr %23, i64 0, i64 %33
  store i8 0, ptr %34, align 1, !tbaa !38
  %35 = trunc nuw i32 %30 to i8
  %36 = sub nuw nsw i8 23, %35
  %37 = getelementptr inbounds nuw i8, ptr %0, i64 135
  store i8 %36, ptr %37, align 1, !tbaa !38
  br label %_ZN7doctest6String8allocateEj.exit.i.i.i.i

.noexc:                                           ; preds = %28
  %38 = getelementptr inbounds nuw i8, ptr %0, i64 135
  store i8 -128, ptr %38, align 1, !tbaa !38
  %39 = getelementptr inbounds nuw i8, ptr %0, i64 120
  store i32 %30, ptr %39, align 8, !tbaa !38
  %40 = add i32 %30, 1
  %41 = getelementptr inbounds nuw i8, ptr %0, i64 124
  store i32 %40, ptr %41, align 4, !tbaa !38
  %42 = zext i32 %40 to i64
  %43 = tail call noalias noundef nonnull ptr @_Znam(i64 noundef %42) #51
  store ptr %43, ptr %23, align 8, !tbaa !38
  %44 = zext i32 %30 to i64
  %45 = getelementptr inbounds nuw i8, ptr %43, i64 %44
  store i8 0, ptr %45, align 1, !tbaa !38
  br label %_ZN7doctest6String8allocateEj.exit.i.i.i.i

_ZN7doctest6String8allocateEj.exit.i.i.i.i:       ; preds = %.noexc, %32
  %.0.i.i.i.i.i = phi ptr [ %23, %32 ], [ %43, %.noexc ]
  %46 = load ptr, ptr %6, align 8, !tbaa !38
  %47 = load i32, ptr %29, align 8, !tbaa !38
  %48 = zext i32 %47 to i64
  tail call void @llvm.memcpy.p0.p0.i64(ptr nonnull align 1 %.0.i.i.i.i.i, ptr align 1 %46, i64 %48, i1 false)
  br label %49

49:                                               ; preds = %_ZN7doctest6String8allocateEj.exit.i.i.i.i, %27
  %50 = getelementptr inbounds nuw i8, ptr %0, i64 136
  %51 = getelementptr inbounds nuw i8, ptr %6, i64 24
  %52 = load i8, ptr %51, align 8, !tbaa !306, !range !22, !noundef !23
  store i8 %52, ptr %50, align 8, !tbaa !306
  ret void
}